; Function Attrs: mustprogress nounwind uwtable
define internal void @_ZN9grpc_core12_GLOBAL__N_112StateWatcher18FinishedCompletionEPvP18grpc_cq_completion(ptr noundef %arg, ptr nocapture readnone %0) #10 align 2 {
entry:
  %refs_.i = getelementptr inbounds i8, ptr %arg, i64 8
  %1 = atomicrmw sub ptr %refs_.i, i64 1 acq_rel, align 8
  %cmp.not.i = icmp eq i64 %1, 1
  br i1 %cmp.not.i, label %delete.notnull.i, label %_ZN9grpc_core14DualRefCountedINS_12_GLOBAL__N_112StateWatcherEE9WeakUnrefEv.exit

delete.notnull.i:                                 ; preds = %entry
  %vtable.i = load ptr, ptr %arg, align 8
  %vfn.i = getelementptr inbounds i8, ptr %vtable.i, i64 16
  %2 = load ptr, ptr %vfn.i, align 8
  tail call void %2(ptr noundef nonnull align 8 dereferenceable(153) %arg) #18
  br label %_ZN9grpc_core14DualRefCountedINS_12_GLOBAL__N_112StateWatcherEE9WeakUnrefEv.exit

_ZN9grpc_core14DualRefCountedINS_12_GLOBAL__N_112StateWatcherEE9WeakUnrefEv.exit: ; preds = %entry, %delete.notnull.i
  ret void
}